target datalayout = "e-m:e-p270:32:32-p271:32:32-p272:64:64-i64:64-i128:128-f80:128-n8:16:32:64-S128"
target triple = "x86_64-pc-linux-gnu"

%struct.expert_field = type { i32, i32 }
%struct._packet_info = type { ptr, ptr, i32, i32, %struct.nstime_t, %struct.nstime_t, %struct.nstime_t, i8, ptr, ptr, ptr, ptr, %struct._address, %struct._address, %struct._address, %struct._address, %struct._address, %struct._address, i32, ptr, i8, [3 x i8], %struct.anon.1, i32, i32, i32, i32, ptr, i8, ptr, ptr, i16, i16, i32, i32, i16, i32, i32, ptr, ptr, ptr, i8, i8, i16, i16, i16, i32, i16, i16, ptr, ptr, ptr, ptr, ptr, i32, i32 }
%struct.nstime_t = type { i64, i32 }
%struct._address = type { i32, i32, ptr, ptr }
%struct.anon.1 = type { i8, [3 x i8] }

@hf_amqp_1_0_list = internal global i32 0, align 4
@ett_amqp_1_0_list = internal global i32 0, align 4
@ei_amqp_unknown_amqp_type = internal global %struct.expert_field zeroinitializer, align 4
@ei_amqp_invalid_number_of_params = internal global %struct.expert_field zeroinitializer, align 4
@.str.1427 = private unnamed_addr constant [1 x i8] zeroinitializer, align 1
@.str.1468 = private unnamed_addr constant [3 x i8] c"%s\00", align 1
@.str.1521 = private unnamed_addr constant [2 x i8] c"s\00", align 1
@.str.1544 = private unnamed_addr constant [18 x i8] c"(unknown type %d)\00", align 1
@.str.1545 = private unnamed_addr constant [26 x i8] c"Unknown AMQP list type %d\00", align 1
@.str.1546 = private unnamed_addr constant [24 x i8] c" (list of %d element%s)\00", align 1
@.str.1547 = private unnamed_addr constant [56 x i8] c"Number of list elements (%d) bigger than list size (%d)\00", align 1
@.str.1548 = private unnamed_addr constant [74 x i8] c"Number of list elements (%d) not matching number of decoded elements (%d)\00", align 1
@.str.1549 = private unnamed_addr constant [8 x i8] c"%s : %s\00", align 1

; Function Attrs: null_pointer_is_valid sspstrong uwtable
define internal void @get_amqp_1_0_type_value_formatter(ptr noundef %0, ptr noundef %1, i32 noundef %2, i32 noundef %3, ptr noundef %4, ptr noundef %5, ptr noundef %6) #0 {
  %8 = alloca ptr, align 8
  %9 = alloca ptr, align 8
  %10 = alloca i32, align 4
  %11 = alloca i32, align 4
  %12 = alloca ptr, align 8
  %13 = alloca ptr, align 8
  %14 = alloca ptr, align 8
  %15 = alloca i32, align 4
  %16 = alloca i32, align 4
  %17 = alloca ptr, align 8
  %18 = alloca ptr, align 8
  %19 = alloca ptr, align 8
  %20 = alloca i32, align 4
  store ptr %0, ptr %8, align 8
  store ptr %1, ptr %9, align 8
  store i32 %2, ptr %10, align 4
  store i32 %3, ptr %11, align 4
  store ptr %4, ptr %12, align 8
  store ptr %5, ptr %13, align 8
  store ptr %6, ptr %14, align 8
  call void @llvm.lifetime.start.p0(i64 4, ptr %15) #11
  call void @llvm.lifetime.start.p0(i64 4, ptr %16) #11
  store i32 0, ptr %16, align 4
  call void @llvm.lifetime.start.p0(i64 8, ptr %17) #11
  store ptr null, ptr %17, align 8
  call void @llvm.lifetime.start.p0(i64 8, ptr %18) #11
  store ptr null, ptr %18, align 8
  call void @llvm.lifetime.start.p0(i64 8, ptr %19) #11
  store ptr null, ptr %19, align 8
  call void @llvm.lifetime.start.p0(i64 4, ptr %20) #11
  %21 = load ptr, ptr %8, align 8
  %22 = load i32, ptr %10, align 4
  %23 = call i32 @get_amqp_1_0_type_formatter(ptr noundef %21, i32 noundef %22, ptr noundef %11, ptr noundef %18, ptr noundef %16, ptr noundef %17, ptr noundef %20)
  store i32 %23, ptr %15, align 4
  %24 = load ptr, ptr %12, align 8
  %25 = icmp ne ptr %24, null
  br i1 %25, label %29, label %26

26:                                               ; preds = %7
  %27 = load ptr, ptr %18, align 8
  %28 = icmp ne ptr %27, null
  br i1 %28, label %29, label %48

29:                                               ; preds = %26, %7
  %30 = load ptr, ptr %18, align 8
  %31 = icmp eq ptr %30, null
  br i1 %31, label %32, label %34

32:                                               ; preds = %29
  %33 = load ptr, ptr %12, align 8
  store ptr %33, ptr %19, align 8
  br label %47

34:                                               ; preds = %29
  %35 = load ptr, ptr %12, align 8
  %36 = icmp eq ptr %35, null
  br i1 %36, label %37, label %39

37:                                               ; preds = %34
  %38 = load ptr, ptr %18, align 8
  store ptr %38, ptr %19, align 8
  br label %46

39:                                               ; preds = %34
  %40 = load ptr, ptr %9, align 8
  %41 = getelementptr inbounds nuw %struct._packet_info, ptr %40, i32 0, i32 51
  %42 = load ptr, ptr %41, align 8
  %43 = load ptr, ptr %12, align 8
  %44 = load ptr, ptr %18, align 8
  %45 = call noalias ptr (ptr, ptr, ...) @wmem_strdup_printf(ptr noundef %42, ptr noundef @.str.1549, ptr noundef %43, ptr noundef %44)
  store ptr %45, ptr %19, align 8
  br label %46

46:                                               ; preds = %39, %37
  br label %47

47:                                               ; preds = %46, %32
  br label %48

48:                                               ; preds = %47, %26
  %49 = load i32, ptr %20, align 4
  %50 = load i32, ptr %10, align 4
  %51 = add i32 %50, %49
  store i32 %51, ptr %10, align 4
  %52 = load ptr, ptr %8, align 8
  %53 = load ptr, ptr %9, align 8
  %54 = load i32, ptr %15, align 4
  %55 = trunc i32 %54 to i8
  %56 = load i32, ptr %10, align 4
  %57 = load i32, ptr %11, align 4
  %58 = load ptr, ptr %19, align 8
  %59 = load i32, ptr %16, align 4
  %60 = load ptr, ptr %17, align 8
  %61 = load ptr, ptr %13, align 8
  %62 = load ptr, ptr %14, align 8
  call void @get_amqp_1_0_value_formatter(ptr noundef %52, ptr noundef %53, i8 noundef zeroext %55, i32 noundef %56, i32 noundef %57, ptr noundef %58, i32 noundef %59, ptr noundef %60, ptr noundef %61, ptr noundef %62)
  %63 = load i32, ptr %20, align 4
  %64 = load ptr, ptr %13, align 8
  %65 = load i32, ptr %64, align 4
  %66 = add i32 %65, %63
  store i32 %66, ptr %64, align 4
  call void @llvm.lifetime.end.p0(i64 4, ptr %20) #11
  call void @llvm.lifetime.end.p0(i64 8, ptr %19) #11
  call void @llvm.lifetime.end.p0(i64 8, ptr %18) #11
  call void @llvm.lifetime.end.p0(i64 8, ptr %17) #11
  call void @llvm.lifetime.end.p0(i64 4, ptr %16) #11
  call void @llvm.lifetime.end.p0(i64 4, ptr %15) #11
  ret void
}

; Function Attrs: null_pointer_is_valid sspstrong uwtable
define internal i32 @dissect_amqp_1_0_list(ptr noundef %0, ptr noundef %1, i32 noundef %2, ptr noundef %3, i32 noundef %4, i32 noundef %5, ptr noundef %6, ptr noundef %7) #0 {
  %9 = alloca i32, align 4
  %10 = alloca ptr, align 8
  %11 = alloca ptr, align 8
  %12 = alloca i32, align 4
  %13 = alloca ptr, align 8
  %14 = alloca i32, align 4
  %15 = alloca i32, align 4
  %16 = alloca ptr, align 8
  %17 = alloca ptr, align 8
  %18 = alloca ptr, align 8
  %19 = alloca i8, align 1
  %20 = alloca i8, align 1
  %21 = alloca i32, align 4
  %22 = alloca i32, align 4
  %23 = alloca i32, align 4
  %24 = alloca i32, align 4
  %25 = alloca i32, align 4
  %26 = alloca i32, align 4
  %27 = alloca i32, align 4
  %28 = alloca i32, align 4
  store ptr %0, ptr %10, align 8
  store ptr %1, ptr %11, align 8
  store i32 %2, ptr %12, align 4
  store ptr %3, ptr %13, align 8
  store i32 %4, ptr %14, align 4
  store i32 %5, ptr %15, align 4
  store ptr %6, ptr %16, align 8
  store ptr %7, ptr %17, align 8
  call void @llvm.lifetime.start.p0(i64 8, ptr %18) #11
  call void @llvm.lifetime.start.p0(i64 1, ptr %19) #11
  call void @llvm.lifetime.start.p0(i64 1, ptr %20) #11
  call void @llvm.lifetime.start.p0(i64 4, ptr %21) #11
  call void @llvm.lifetime.start.p0(i64 4, ptr %22) #11
  call void @llvm.lifetime.start.p0(i64 4, ptr %23) #11
  call void @llvm.lifetime.start.p0(i64 4, ptr %24) #11
  call void @llvm.lifetime.start.p0(i64 4, ptr %25) #11
  call void @llvm.lifetime.start.p0(i64 4, ptr %26) #11
  call void @llvm.lifetime.start.p0(i64 4, ptr %27) #11
  store ptr null, ptr %18, align 8
  store i32 0, ptr %26, align 4
  %29 = load i32, ptr %12, align 4
  store i32 %29, ptr %25, align 4
  %30 = load ptr, ptr %10, align 8
  %31 = load i32, ptr %12, align 4
  %32 = call zeroext i8 @tvb_get_uint8(ptr noundef %30, i32 noundef %31)
  store i8 %32, ptr %19, align 1
  %33 = load i32, ptr %12, align 4
  %34 = add i32 %33, 1
  store i32 %34, ptr %12, align 4
  %35 = load i8, ptr %19, align 1
  %36 = zext i8 %35 to i32
  switch i32 %36, label %60 [
    i32 69, label %37
    i32 192, label %38
    i32 208, label %50
  ]

37:                                               ; preds = %8
  store i8 0, ptr %20, align 1
  store i32 0, ptr %23, align 4
  store i32 0, ptr %22, align 4
  br label %74

38:                                               ; preds = %8
  store i8 1, ptr %20, align 1
  %39 = load ptr, ptr %10, align 8
  %40 = load i32, ptr %12, align 4
  %41 = call zeroext i8 @tvb_get_uint8(ptr noundef %39, i32 noundef %40)
  %42 = zext i8 %41 to i32
  store i32 %42, ptr %23, align 4
  %43 = load ptr, ptr %10, align 8
  %44 = load i32, ptr %12, align 4
  %45 = load i8, ptr %20, align 1
  %46 = zext i8 %45 to i32
  %47 = add i32 %44, %46
  %48 = call zeroext i8 @tvb_get_uint8(ptr noundef %43, i32 noundef %47)
  %49 = zext i8 %48 to i32
  store i32 %49, ptr %22, align 4
  br label %74

50:                                               ; preds = %8
  store i8 4, ptr %20, align 1
  %51 = load ptr, ptr %10, align 8
  %52 = load i32, ptr %12, align 4
  %53 = call i32 @tvb_get_ntohl(ptr noundef %51, i32 noundef %52)
  store i32 %53, ptr %23, align 4
  %54 = load ptr, ptr %10, align 8
  %55 = load i32, ptr %12, align 4
  %56 = load i8, ptr %20, align 1
  %57 = zext i8 %56 to i32
  %58 = add i32 %55, %57
  %59 = call i32 @tvb_get_ntohl(ptr noundef %54, i32 noundef %58)
  store i32 %59, ptr %22, align 4
  br label %74

60:                                               ; preds = %8
  %61 = load ptr, ptr %18, align 8
  %62 = load i32, ptr @hf_amqp_1_0_list, align 4
  %63 = load ptr, ptr %10, align 8
  %64 = load i32, ptr %12, align 4
  %65 = sub i32 %64, 1
  %66 = load i8, ptr %19, align 1
  %67 = zext i8 %66 to i32
  %68 = call ptr (ptr, i32, ptr, i32, i32, ptr, ...) @proto_tree_add_none_format(ptr noundef %61, i32 noundef %62, ptr noundef %63, i32 noundef %65, i32 noundef 1, ptr noundef @.str.1544, i32 noundef %67)
  %69 = load ptr, ptr %11, align 8
  %70 = load ptr, ptr %18, align 8
  %71 = load i8, ptr %19, align 1
  %72 = zext i8 %71 to i32
  %73 = call ptr (ptr, ptr, ptr, ptr, ...) @expert_add_info_format(ptr noundef %69, ptr noundef %70, ptr noundef @ei_amqp_unknown_amqp_type, ptr noundef @.str.1545, i32 noundef %72)
  store i32 0, ptr %9, align 4
  store i32 1, ptr %28, align 4
  br label %181

74:                                               ; preds = %50, %38, %37
  %75 = load ptr, ptr %13, align 8
  %76 = load i32, ptr %14, align 4
  %77 = load ptr, ptr %10, align 8
  %78 = load i32, ptr %12, align 4
  %79 = sub i32 %78, 1
  %80 = load i32, ptr %23, align 4
  %81 = add i32 %80, 1
  %82 = load i8, ptr %20, align 1
  %83 = zext i8 %82 to i32
  %84 = add i32 %81, %83
  %85 = call ptr @proto_tree_add_item(ptr noundef %75, i32 noundef %76, ptr noundef %77, i32 noundef %79, i32 noundef %84, i32 noundef 0)
  store ptr %85, ptr %18, align 8
  %86 = load ptr, ptr %18, align 8
  %87 = load ptr, ptr %17, align 8
  %88 = icmp ne ptr %87, null
  br i1 %88, label %89, label %91

89:                                               ; preds = %74
  %90 = load ptr, ptr %17, align 8
  br label %94

91:                                               ; preds = %74
  %92 = load i32, ptr %14, align 4
  %93 = call ptr @proto_registrar_get_name(i32 noundef %92)
  br label %94

94:                                               ; preds = %91, %89
  %95 = phi ptr [ %90, %89 ], [ %93, %91 ]
  call void (ptr, ptr, ...) @proto_item_set_text(ptr noundef %86, ptr noundef @.str.1468, ptr noundef %95)
  %96 = load i8, ptr %20, align 1
  %97 = zext i8 %96 to i32
  %98 = mul i32 %97, 2
  %99 = load i32, ptr %12, align 4
  %100 = add i32 %99, %98
  store i32 %100, ptr %12, align 4
  %101 = load i32, ptr %22, align 4
  %102 = icmp ugt i32 %101, 0
  br i1 %102, label %103, label %107

103:                                              ; preds = %94
  %104 = load ptr, ptr %18, align 8
  %105 = load i32, ptr @ett_amqp_1_0_list, align 4
  %106 = call ptr @proto_item_add_subtree(ptr noundef %104, i32 noundef %105)
  store ptr %106, ptr %18, align 8
  br label %107

107:                                              ; preds = %103, %94
  %108 = load i32, ptr %15, align 4
  %109 = icmp eq i32 %108, 0
  br i1 %109, label %110, label %116

110:                                              ; preds = %107
  %111 = load ptr, ptr %18, align 8
  %112 = load i32, ptr %22, align 4
  %113 = load i32, ptr %22, align 4
  %114 = icmp eq i32 %113, 1
  %115 = select i1 %114, ptr @.str.1427, ptr @.str.1521
  call void (ptr, ptr, ...) @proto_item_append_text(ptr noundef %111, ptr noundef @.str.1546, i32 noundef %112, ptr noundef %115)
  br label %116

116:                                              ; preds = %110, %107
  %117 = load i32, ptr %22, align 4
  %118 = load i32, ptr %23, align 4
  %119 = icmp ugt i32 %117, %118
  br i1 %119, label %120, label %126

120:                                              ; preds = %116
  %121 = load ptr, ptr %11, align 8
  %122 = load ptr, ptr %18, align 8
  %123 = load i32, ptr %22, align 4
  %124 = load i32, ptr %23, align 4
  %125 = call ptr (ptr, ptr, ptr, ptr, ...) @expert_add_info_format(ptr noundef %121, ptr noundef %122, ptr noundef @ei_amqp_invalid_number_of_params, ptr noundef @.str.1547, i32 noundef %123, i32 noundef %124)
  store i32 0, ptr %9, align 4
  store i32 1, ptr %28, align 4
  br label %181

126:                                              ; preds = %116
  store i32 0, ptr %21, align 4
  br label %127

127:                                              ; preds = %162, %126
  %128 = load i32, ptr %21, align 4
  %129 = load i32, ptr %22, align 4
  %130 = icmp ult i32 %128, %129
  br i1 %130, label %131, label %136

131:                                              ; preds = %127
  %132 = load ptr, ptr %10, align 8
  %133 = load i32, ptr %12, align 4
  %134 = call i32 @tvb_reported_length_remaining(ptr noundef %132, i32 noundef %133)
  %135 = icmp sgt i32 %134, 0
  br label %136

136:                                              ; preds = %131, %127
  %137 = phi i1 [ false, %127 ], [ %135, %131 ]
  br i1 %137, label %138, label %165

138:                                              ; preds = %136
  store i32 0, ptr %24, align 4
  %139 = load i32, ptr %26, align 4
  %140 = load i32, ptr %15, align 4
  %141 = icmp ult i32 %139, %140
  br i1 %141, label %142, label %149

142:                                              ; preds = %138
  %143 = load ptr, ptr %16, align 8
  %144 = load i32, ptr %26, align 4
  %145 = zext i32 %144 to i64
  %146 = getelementptr ptr, ptr %143, i64 %145
  %147 = load ptr, ptr %146, align 8
  %148 = load i32, ptr %147, align 4
  store i32 %148, ptr %27, align 4
  br label %151

149:                                              ; preds = %138
  %150 = load i32, ptr @hf_amqp_1_0_list, align 4
  store i32 %150, ptr %27, align 4
  br label %151

151:                                              ; preds = %149, %142
  %152 = load ptr, ptr %10, align 8
  %153 = load ptr, ptr %11, align 8
  %154 = load i32, ptr %12, align 4
  %155 = load i32, ptr %27, align 4
  %156 = load ptr, ptr %18, align 8
  call void @get_amqp_1_0_type_value_formatter(ptr noundef %152, ptr noundef %153, i32 noundef %154, i32 noundef %155, ptr noundef null, ptr noundef %24, ptr noundef %156)
  %157 = load i32, ptr %26, align 4
  %158 = add i32 %157, 1
  store i32 %158, ptr %26, align 4
  %159 = load i32, ptr %24, align 4
  %160 = load i32, ptr %12, align 4
  %161 = add i32 %160, %159
  store i32 %161, ptr %12, align 4
  br label %162

162:                                              ; preds = %151
  %163 = load i32, ptr %21, align 4
  %164 = add i32 %163, 1
  store i32 %164, ptr %21, align 4
  br label %127, !llvm.loop !22

165:                                              ; preds = %136
  %166 = load i32, ptr %21, align 4
  %167 = load i32, ptr %22, align 4
  %168 = icmp ne i32 %166, %167
  br i1 %168, label %169, label %177

169:                                              ; preds = %165
  %170 = load ptr, ptr %11, align 8
  %171 = load ptr, ptr %18, align 8
  %172 = load i32, ptr %22, align 4
  %173 = load i32, ptr %26, align 4
  %174 = add i32 %172, %173
  %175 = load i32, ptr %26, align 4
  %176 = call ptr (ptr, ptr, ptr, ptr, ...) @expert_add_info_format(ptr noundef %170, ptr noundef %171, ptr noundef @ei_amqp_invalid_number_of_params, ptr noundef @.str.1548, i32 noundef %174, i32 noundef %175)
  br label %177

177:                                              ; preds = %169, %165
  %178 = load i32, ptr %12, align 4
  %179 = load i32, ptr %25, align 4
  %180 = sub i32 %178, %179
  store i32 %180, ptr %9, align 4
  store i32 1, ptr %28, align 4
  br label %181

181:                                              ; preds = %177, %120, %60
  call void @llvm.lifetime.end.p0(i64 4, ptr %27) #11
  call void @llvm.lifetime.end.p0(i64 4, ptr %26) #11
  call void @llvm.lifetime.end.p0(i64 4, ptr %25) #11
  call void @llvm.lifetime.end.p0(i64 4, ptr %24) #11
  call void @llvm.lifetime.end.p0(i64 4, ptr %23) #11
  call void @llvm.lifetime.end.p0(i64 4, ptr %22) #11
  call void @llvm.lifetime.end.p0(i64 4, ptr %21) #11
  call void @llvm.lifetime.end.p0(i64 1, ptr %20) #11
  call void @llvm.lifetime.end.p0(i64 1, ptr %19) #11
  call void @llvm.lifetime.end.p0(i64 8, ptr %18) #11
  %182 = load i32, ptr %9, align 4
  ret i32 %182
}