; Function Attrs: null_pointer_is_valid sspstrong uwtable
define internal fastcc i32 @dissect_amqp_1_0_list(ptr noundef %0, ptr noundef %1, i32 noundef %2, ptr noundef %3, i32 noundef %4, i32 noundef %5, ptr noundef readonly captures(none) %6, ptr noundef %7) unnamed_addr #0 {
  %9 = alloca i32, align 4
  %10 = alloca i32, align 4
  %11 = alloca ptr, align 8
  %12 = alloca ptr, align 8
  %13 = alloca i32, align 4
  %14 = alloca i32, align 4
  call void @llvm.lifetime.start.p0(i64 4, ptr nonnull %14) #14
  %15 = tail call zeroext i8 @tvb_get_uint8(ptr noundef %0, i32 noundef %2)
  %16 = add i32 %2, 1
  switch i8 %15, label %27 [
    i8 69, label %32
    i8 -64, label %17
    i8 -48, label %23
  ]

17:                                               ; preds = %8
  %18 = tail call zeroext i8 @tvb_get_uint8(ptr noundef %0, i32 noundef %16)
  %19 = zext i8 %18 to i32
  %20 = add i32 %2, 2
  %21 = tail call zeroext i8 @tvb_get_uint8(ptr noundef %0, i32 noundef %20)
  %22 = zext i8 %21 to i32
  br label %32

23:                                               ; preds = %8
  %24 = tail call i32 @tvb_get_ntohl(ptr noundef %0, i32 noundef %16)
  %25 = add i32 %2, 5
  %26 = tail call i32 @tvb_get_ntohl(ptr noundef %0, i32 noundef %25)
  br label %32

27:                                               ; preds = %8
  %28 = zext i8 %15 to i32
  %29 = load i32, ptr @hf_amqp_1_0_list, align 4
  %30 = tail call ptr (ptr, i32, ptr, i32, i32, ptr, ...) @proto_tree_add_none_format(ptr noundef null, i32 noundef %29, ptr noundef %0, i32 noundef %2, i32 noundef 1, ptr noundef nonnull @.str.1544, i32 noundef %28)
  %31 = tail call ptr (ptr, ptr, ptr, ptr, ...) @expert_add_info_format(ptr noundef %1, ptr noundef null, ptr noundef nonnull @ei_amqp_unknown_amqp_type, ptr noundef nonnull @.str.1545, i32 noundef %28)
  br label %77

32:                                               ; preds = %8, %23, %17
  %.076 = phi i32 [ 4, %23 ], [ 1, %17 ], [ 0, %8 ]
  %.074 = phi i32 [ %26, %23 ], [ %22, %17 ], [ 0, %8 ]
  %.073 = phi i32 [ %24, %23 ], [ %19, %17 ], [ 0, %8 ]
  %33 = add nuw nsw i32 %.076, 1
  %34 = add i32 %33, %.073
  %35 = tail call ptr @proto_tree_add_item(ptr noundef %3, i32 noundef %4, ptr noundef %0, i32 noundef %2, i32 noundef %34, i32 noundef 0)
  %.not = icmp eq ptr %7, null
  br i1 %.not, label %36, label %38

36:                                               ; preds = %32
  %37 = tail call ptr @proto_registrar_get_name(i32 noundef %4)
  br label %38

38:                                               ; preds = %32, %36
  %39 = phi ptr [ %37, %36 ], [ %7, %32 ]
  tail call void (ptr, ptr, ...) @proto_item_set_text(ptr noundef %35, ptr noundef nonnull @.str.1468, ptr noundef %39)
  %40 = shl nuw nsw i32 %.076, 1
  %41 = add i32 %40, %16
  %.not80 = icmp eq i32 %.074, 0
  br i1 %.not80, label %45, label %42

42:                                               ; preds = %38
  %43 = load i32, ptr @ett_amqp_1_0_list, align 4
  %44 = tail call ptr @proto_item_add_subtree(ptr noundef %35, i32 noundef %43)
  br label %45

45:                                               ; preds = %42, %38
  %.078 = phi ptr [ %44, %42 ], [ %35, %38 ]
  %46 = icmp eq i32 %5, 0
  br i1 %46, label %47, label %50

47:                                               ; preds = %45
  %48 = icmp eq i32 %.074, 1
  %49 = select i1 %48, ptr @.str.1427, ptr @.str.1521
  tail call void (ptr, ptr, ...) @proto_item_append_text(ptr noundef %.078, ptr noundef nonnull @.str.1546, i32 noundef %.074, ptr noundef nonnull %49)
  br label %50

50:                                               ; preds = %47, %45
  %51 = icmp ugt i32 %.074, %.073
  br i1 %51, label %53, label %.preheader

.preheader:                                       ; preds = %50
  br i1 %.not80, label %.critedge, label %.lr.ph.preheader

.lr.ph.preheader:                                 ; preds = %.preheader
  %52 = zext i32 %5 to i64
  %wide.trip.count = zext i32 %.074 to i64
  br label %.lr.ph

53:                                               ; preds = %50
  %54 = tail call ptr (ptr, ptr, ptr, ptr, ...) @expert_add_info_format(ptr noundef %1, ptr noundef %.078, ptr noundef nonnull @ei_amqp_invalid_number_of_params, ptr noundef nonnull @.str.1547, i32 noundef %.074, i32 noundef %.073)
  br label %77

.lr.ph:                                           ; preds = %.lr.ph.preheader, %get_amqp_1_0_type_value_formatter.exit
  %indvars.iv = phi i64 [ 0, %.lr.ph.preheader ], [ %indvars.iv.next, %get_amqp_1_0_type_value_formatter.exit ]
  %.07782 = phi i32 [ %41, %.lr.ph.preheader ], [ %72, %get_amqp_1_0_type_value_formatter.exit ]
  %55 = tail call i32 @tvb_reported_length_remaining(ptr noundef %0, i32 noundef %.07782)
  %56 = icmp sgt i32 %55, 0
  br i1 %56, label %57, label %.critedge.loopexit

57:                                               ; preds = %.lr.ph
  store i32 0, ptr %14, align 4
  %58 = icmp samesign ult i64 %indvars.iv, %52
  br i1 %58, label %59, label %get_amqp_1_0_type_value_formatter.exit

59:                                               ; preds = %57
  %60 = getelementptr ptr, ptr %6, i64 %indvars.iv
  %61 = load ptr, ptr %60, align 8
  br label %get_amqp_1_0_type_value_formatter.exit

get_amqp_1_0_type_value_formatter.exit:           ; preds = %57, %59
  %.0.in = phi ptr [ %61, %59 ], [ @hf_amqp_1_0_list, %57 ]
  %.0 = load i32, ptr %.0.in, align 4
  call void @llvm.lifetime.start.p0(i64 4, ptr nonnull %9)
  store i32 %.0, ptr %9, align 4
  call void @llvm.lifetime.start.p0(i64 4, ptr nonnull %10) #14
  store i32 0, ptr %10, align 4
  call void @llvm.lifetime.start.p0(i64 8, ptr nonnull %11) #14
  store ptr null, ptr %11, align 8
  call void @llvm.lifetime.start.p0(i64 8, ptr nonnull %12) #14
  store ptr null, ptr %12, align 8
  call void @llvm.lifetime.start.p0(i64 4, ptr nonnull %13) #14
  %62 = call fastcc i32 @get_amqp_1_0_type_formatter(ptr noundef %0, i32 noundef %.07782, ptr noundef nonnull %9, ptr noundef nonnull %12, ptr noundef nonnull %10, ptr noundef nonnull %11, ptr noundef nonnull %13)
  %63 = load ptr, ptr %12, align 8
  %64 = load i32, ptr %13, align 4
  %65 = add i32 %64, %.07782
  %66 = trunc nuw i32 %62 to i8
  %67 = load i32, ptr %9, align 4
  %68 = load i32, ptr %10, align 4
  %69 = load ptr, ptr %11, align 8
  call fastcc void @get_amqp_1_0_value_formatter(ptr noundef %0, ptr noundef %1, i8 noundef zeroext %66, i32 noundef %65, i32 noundef %67, ptr noundef %63, i32 noundef %68, ptr noundef %69, ptr noundef nonnull %14, ptr noundef %.078)
  %70 = load i32, ptr %14, align 4
  %71 = add i32 %70, %64
  store i32 %71, ptr %14, align 4
  call void @llvm.lifetime.end.p0(i64 4, ptr nonnull %13) #14
  call void @llvm.lifetime.end.p0(i64 8, ptr nonnull %12) #14
  call void @llvm.lifetime.end.p0(i64 8, ptr nonnull %11) #14
  call void @llvm.lifetime.end.p0(i64 4, ptr nonnull %10) #14
  call void @llvm.lifetime.end.p0(i64 4, ptr nonnull %9)
  %indvars.iv.next = add nuw nsw i64 %indvars.iv, 1
  %72 = add i32 %71, %.07782
  %exitcond.not = icmp eq i64 %indvars.iv.next, %wide.trip.count
  br i1 %exitcond.not, label %.critedge.thread, label %.lr.ph, !llvm.loop !20

.critedge.loopexit:                               ; preds = %.lr.ph
  %indvars94.le = trunc i64 %indvars.iv to i32
  br label %.critedge

.critedge:                                        ; preds = %.critedge.loopexit, %.preheader
  %.077.lcssa = phi i32 [ %41, %.preheader ], [ %.07782, %.critedge.loopexit ]
  %.075.lcssa = phi i32 [ 0, %.preheader ], [ %indvars94.le, %.critedge.loopexit ]
  %.not81 = icmp eq i32 %.075.lcssa, %.074
  br i1 %.not81, label %.critedge.thread, label %73

73:                                               ; preds = %.critedge
  %74 = add i32 %.075.lcssa, %.074
  %75 = tail call ptr (ptr, ptr, ptr, ptr, ...) @expert_add_info_format(ptr noundef %1, ptr noundef %.078, ptr noundef nonnull @ei_amqp_invalid_number_of_params, ptr noundef nonnull @.str.1548, i32 noundef %74, i32 noundef %.075.lcssa)
  br label %.critedge.thread

.critedge.thread:                                 ; preds = %get_amqp_1_0_type_value_formatter.exit, %73, %.critedge
  %.077.lcssa98 = phi i32 [ %.077.lcssa, %73 ], [ %.077.lcssa, %.critedge ], [ %72, %get_amqp_1_0_type_value_formatter.exit ]
  %76 = sub i32 %.077.lcssa98, %2
  br label %77

77:                                               ; preds = %.critedge.thread, %53, %27
  %.072 = phi i32 [ 0, %27 ], [ 0, %53 ], [ %76, %.critedge.thread ]
  call void @llvm.lifetime.end.p0(i64 4, ptr nonnull %14) #14
  ret i32 %.072
}